; Function Attrs: mustprogress nofree norecurse nosync nounwind willreturn memory(none) uwtable
define noundef nonnull ptr @_ZN2cv13depthToStringEi(i32 noundef %0) local_unnamed_addr #0 {
  %or.cond.i = icmp ult i32 %0, 8
  br i1 %or.cond.i, label %2, label %_ZN2cv6detail14depthToString_Ei.exit

2:                                                ; preds = %1
  %3 = zext nneg i32 %0 to i64
  %4 = getelementptr inbounds nuw [8 x ptr], ptr @_ZZN2cv6detail14depthToString_EiE10depthNames, i64 0, i64 %3
  %5 = load ptr, ptr %4, align 8, !tbaa !3
  br label %_ZN2cv6detail14depthToString_Ei.exit

_ZN2cv6detail14depthToString_Ei.exit:             ; preds = %1, %2
  %6 = phi ptr [ %5, %2 ], [ null, %1 ]
  %.not = icmp eq ptr %6, null
  %7 = select i1 %.not, ptr @.str, ptr %6
  ret ptr %7
}